; Function Attrs: nofree nosync nounwind memory(readwrite, inaccessiblemem: none) uwtable
define noundef ptr @Extra_SupportArray(ptr noundef readonly captures(none) %0, ptr noundef %1, ptr noundef returned %2) local_unnamed_addr #8 {
  %4 = getelementptr inbounds nuw i8, ptr %0, i64 140
  %5 = load i32, ptr %4, align 4, !tbaa !49
  %6 = getelementptr inbounds nuw i8, ptr %0, i64 136
  %7 = load i32, ptr %6, align 8, !tbaa !29
  %. = tail call i32 @llvm.smax.i32(i32 %5, i32 %7)
  %8 = icmp sgt i32 %., 0
  br i1 %8, label %.lr.ph.preheader, label %._crit_edge

.lr.ph.preheader:                                 ; preds = %3
  %9 = zext nneg i32 %. to i64
  %10 = shl nuw nsw i64 %9, 2
  tail call void @llvm.memset.p0.i64(ptr align 4 %2, i8 0, i64 %10, i1 false), !tbaa !31
  br label %._crit_edge

._crit_edge:                                      ; preds = %.lr.ph.preheader, %3
  %11 = ptrtoint ptr %1 to i64
  %12 = and i64 %11, -2
  %13 = inttoptr i64 %12 to ptr
  tail call void @ddSupportStep2(ptr noundef %13, ptr noundef %2)
  tail call void @ddClearFlag2(ptr noundef %13)
  ret ptr %2
}